; ModuleID = '5/891.c'
source_filename = "5/891.c"
target datalayout = "e-m:e-p270:32:32-p271:32:32-p272:64:64-i64:64-f80:128-n8:16:32:64-S128"
target triple = "x86_64-pc-linux-gnu"

@.str = private unnamed_addr constant [4 x i8] c"%lf\00", align 1
@.str.1 = private unnamed_addr constant [3 x i8] c"%s\00", align 1
@.str.2 = private unnamed_addr constant [6 x i8] c"error\00", align 1
@.str.3 = private unnamed_addr constant [4 x i8] c"yes\00", align 1
@.str.4 = private unnamed_addr constant [3 x i8] c"no\00", align 1

; Function Attrs: noinline nounwind uwtable
define dso_local i32 @main() #0 {
  %1 = alloca i32, align 4
  %2 = alloca [510 x i8], align 16
  %3 = alloca [510 x i8], align 16
  %4 = alloca i32, align 4
  %5 = alloca i32, align 4
  %6 = alloca double, align 8
  %7 = alloca double, align 8
  %8 = alloca i32, align 4
  %9 = alloca i32, align 4
  store i32 0, i32* %1, align 4
  %10 = call i32 (i8*, ...) @__isoc99_scanf(i8* getelementptr inbounds ([4 x i8], [4 x i8]* @.str, i64 0, i64 0), double* %7)
  %11 = getelementptr inbounds [510 x i8], [510 x i8]* %2, i64 0, i64 0
  %12 = call i32 (i8*, ...) @__isoc99_scanf(i8* getelementptr inbounds ([3 x i8], [3 x i8]* @.str.1, i64 0, i64 0), i8* %11)
  %13 = getelementptr inbounds [510 x i8], [510 x i8]* %3, i64 0, i64 0
  %14 = call i32 (i8*, ...) @__isoc99_scanf(i8* getelementptr inbounds ([3 x i8], [3 x i8]* @.str.1, i64 0, i64 0), i8* %13)
  store i32 0, i32* %5, align 4
  %15 = getelementptr inbounds [510 x i8], [510 x i8]* %2, i64 0, i64 0
  %16 = call i64 @strlen(i8* %15) #3
  %17 = trunc i64 %16 to i32
  store i32 %17, i32* %8, align 4
  %18 = getelementptr inbounds [510 x i8], [510 x i8]* %3, i64 0, i64 0
  %19 = call i64 @strlen(i8* %18) #3
  %20 = trunc i64 %19 to i32
  store i32 %20, i32* %9, align 4
  %21 = load i32, i32* %8, align 4
  %22 = load i32, i32* %9, align 4
  %23 = icmp ne i32 %21, %22
  br i1 %23, label %24, label %26

24:                                               ; preds = %0
  %25 = call i32 (i8*, ...) @printf(i8* getelementptr inbounds ([6 x i8], [6 x i8]* @.str.2, i64 0, i64 0))
  br label %96

26:                                               ; preds = %0
  store i32 0, i32* %4, align 4
  br label %27

27:                                               ; preds = %78, %26
  %28 = load i32, i32* %4, align 4
  %29 = load i32, i32* %8, align 4
  %30 = icmp slt i32 %28, %29
  br i1 %30, label %31, label %81

31:                                               ; preds = %27
  %32 = load i32, i32* %4, align 4
  %33 = sext i32 %32 to i64
  %34 = getelementptr inbounds [510 x i8], [510 x i8]* %2, i64 0, i64 %33
  %35 = load i8, i8* %34, align 1
  %36 = sext i8 %35 to i32
  %37 = icmp ne i32 %36, 65
  br i1 %37, label %38, label %61

38:                                               ; preds = %31
  %39 = load i32, i32* %4, align 4
  %40 = sext i32 %39 to i64
  %41 = getelementptr inbounds [510 x i8], [510 x i8]* %2, i64 0, i64 %40
  %42 = load i8, i8* %41, align 1
  %43 = sext i8 %42 to i32
  %44 = icmp ne i32 %43, 84
  br i1 %44, label %45, label %61

45:                                               ; preds = %38
  %46 = load i32, i32* %4, align 4
  %47 = sext i32 %46 to i64
  %48 = getelementptr inbounds [510 x i8], [510 x i8]* %2, i64 0, i64 %47
  %49 = load i8, i8* %48, align 1
  %50 = sext i8 %49 to i32
  %51 = icmp ne i32 %50, 67
  br i1 %51, label %52, label %61

52:                                               ; preds = %45
  %53 = load i32, i32* %4, align 4
  %54 = sext i32 %53 to i64
  %55 = getelementptr inbounds [510 x i8], [510 x i8]* %2, i64 0, i64 %54
  %56 = load i8, i8* %55, align 1
  %57 = sext i8 %56 to i32
  %58 = icmp ne i32 %57, 71
  br i1 %58, label %59, label %61

59:                                               ; preds = %52
  %60 = call i32 (i8*, ...) @printf(i8* getelementptr inbounds ([6 x i8], [6 x i8]* @.str.2, i64 0, i64 0))
  store i32 0, i32* %1, align 4
  br label %97

61:                                               ; preds = %52, %45, %38, %31
  %62 = load i32, i32* %4, align 4
  %63 = sext i32 %62 to i64
  %64 = getelementptr inbounds [510 x i8], [510 x i8]* %2, i64 0, i64 %63
  %65 = load i8, i8* %64, align 1
  %66 = sext i8 %65 to i32
  %67 = load i32, i32* %4, align 4
  %68 = sext i32 %67 to i64
  %69 = getelementptr inbounds [510 x i8], [510 x i8]* %3, i64 0, i64 %68
  %70 = load i8, i8* %69, align 1
  %71 = sext i8 %70 to i32
  %72 = icmp eq i32 %66, %71
  br i1 %72, label %73, label %76

73:                                               ; preds = %61
  %74 = load i32, i32* %5, align 4
  %75 = add nsw i32 %74, 1
  store i32 %75, i32* %5, align 4
  br label %76

76:                                               ; preds = %73, %61
  br label %77

77:                                               ; preds = %76
  br label %78

78:                                               ; preds = %77
  %79 = load i32, i32* %4, align 4
  %80 = add nsw i32 %79, 1
  store i32 %80, i32* %4, align 4
  br label %27

81:                                               ; preds = %27
  %82 = load i32, i32* %5, align 4
  %83 = sitofp i32 %82 to double
  %84 = fmul double 1.000000e+00, %83
  %85 = load i32, i32* %8, align 4
  %86 = sitofp i32 %85 to double
  %87 = fdiv double %84, %86
  store double %87, double* %6, align 8
  %88 = load double, double* %6, align 8
  %89 = load double, double* %7, align 8
  %90 = fcmp ogt double %88, %89
  br i1 %90, label %91, label %93

91:                                               ; preds = %81
  %92 = call i32 (i8*, ...) @printf(i8* getelementptr inbounds ([4 x i8], [4 x i8]* @.str.3, i64 0, i64 0))
  br label %95

93:                                               ; preds = %81
  %94 = call i32 (i8*, ...) @printf(i8* getelementptr inbounds ([3 x i8], [3 x i8]* @.str.4, i64 0, i64 0))
  br label %95

95:                                               ; preds = %93, %91
  br label %96

96:                                               ; preds = %95, %24
  store i32 0, i32* %1, align 4
  br label %97

97:                                               ; preds = %96, %59
  %98 = load i32, i32* %1, align 4
  ret i32 %98
}

declare dso_local i32 @__isoc99_scanf(i8*, ...) #1

; Function Attrs: nounwind readonly
declare dso_local i64 @strlen(i8*) #2

declare dso_local i32 @printf(i8*, ...) #1


!llvm.module.flags = !{!0}
!llvm.ident = !{!1}

!0 = !{i32 1, !"wchar_size", i32 4}
!1 = !{!"clang version 10.0.0-4ubuntu1 "}
